; ModuleID = '19/1421.c'
source_filename = "19/1421.c"
target datalayout = "e-m:e-p270:32:32-p271:32:32-p272:64:64-i64:64-f80:128-n8:16:32:64-S128"
target triple = "x86_64-pc-linux-gnu"

@.str = private unnamed_addr constant [4 x i8] c"%s \00", align 1
@.str.1 = private unnamed_addr constant [4 x i8] c"%s\0A\00", align 1

; Function Attrs: noinline nounwind uwtable
define dso_local i32 @main() #0 {
  %1 = alloca i32, align 4
  %2 = alloca [101 x i8], align 16
  %3 = alloca [101 x i8], align 16
  %4 = alloca [101 x i8], align 16
  %5 = alloca [50 x [101 x i8]], align 16
  %6 = alloca [50 x i32], align 16
  %7 = alloca i32, align 4
  %8 = alloca i32, align 4
  %9 = alloca i32, align 4
  %10 = alloca i32, align 4
  store i32 0, i32* %1, align 4
  store i32 0, i32* %9, align 4
  store i32 0, i32* %10, align 4
  %11 = getelementptr inbounds [101 x i8], [101 x i8]* %2, i64 0, i64 0
  %12 = call i32 (i8*, ...) bitcast (i32 (...)* @gets to i32 (i8*, ...)*)(i8* %11)
  %13 = getelementptr inbounds [101 x i8], [101 x i8]* %3, i64 0, i64 0
  %14 = call i32 (i8*, ...) bitcast (i32 (...)* @gets to i32 (i8*, ...)*)(i8* %13)
  %15 = getelementptr inbounds [101 x i8], [101 x i8]* %4, i64 0, i64 0
  %16 = call i32 (i8*, ...) bitcast (i32 (...)* @gets to i32 (i8*, ...)*)(i8* %15)
  %17 = getelementptr inbounds [101 x i8], [101 x i8]* %2, i64 0, i64 0
  %18 = call i64 @strlen(i8* %17) #4
  %19 = trunc i64 %18 to i32
  store i32 %19, i32* %7, align 4
  store i32 0, i32* %8, align 4
  br label %20

20:                                               ; preds = %54, %0
  %21 = load i32, i32* %8, align 4
  %22 = load i32, i32* %7, align 4
  %23 = icmp slt i32 %21, %22
  br i1 %23, label %24, label %57

24:                                               ; preds = %20
  %25 = load i32, i32* %8, align 4
  %26 = sext i32 %25 to i64
  %27 = getelementptr inbounds [101 x i8], [101 x i8]* %2, i64 0, i64 %26
  %28 = load i8, i8* %27, align 1
  %29 = sext i8 %28 to i32
  %30 = icmp ne i32 %29, 32
  br i1 %30, label %31, label %44

31:                                               ; preds = %24
  %32 = load i32, i32* %8, align 4
  %33 = sext i32 %32 to i64
  %34 = getelementptr inbounds [101 x i8], [101 x i8]* %2, i64 0, i64 %33
  %35 = load i8, i8* %34, align 1
  %36 = load i32, i32* %10, align 4
  %37 = sext i32 %36 to i64
  %38 = getelementptr inbounds [50 x [101 x i8]], [50 x [101 x i8]]* %5, i64 0, i64 %37
  %39 = load i32, i32* %9, align 4
  %40 = sext i32 %39 to i64
  %41 = getelementptr inbounds [101 x i8], [101 x i8]* %38, i64 0, i64 %40
  store i8 %35, i8* %41, align 1
  %42 = load i32, i32* %9, align 4
  %43 = add nsw i32 %42, 1
  store i32 %43, i32* %9, align 4
  br label %53

44:                                               ; preds = %24
  %45 = load i32, i32* %10, align 4
  %46 = sext i32 %45 to i64
  %47 = getelementptr inbounds [50 x [101 x i8]], [50 x [101 x i8]]* %5, i64 0, i64 %46
  %48 = load i32, i32* %9, align 4
  %49 = sext i32 %48 to i64
  %50 = getelementptr inbounds [101 x i8], [101 x i8]* %47, i64 0, i64 %49
  store i8 0, i8* %50, align 1
  %51 = load i32, i32* %10, align 4
  %52 = add nsw i32 %51, 1
  store i32 %52, i32* %10, align 4
  store i32 0, i32* %9, align 4
  br label %53

53:                                               ; preds = %44, %31
  br label %54

54:                                               ; preds = %53
  %55 = load i32, i32* %8, align 4
  %56 = add nsw i32 %55, 1
  store i32 %56, i32* %8, align 4
  br label %20

57:                                               ; preds = %20
  %58 = load i32, i32* %10, align 4
  %59 = sext i32 %58 to i64
  %60 = getelementptr inbounds [50 x [101 x i8]], [50 x [101 x i8]]* %5, i64 0, i64 %59
  %61 = load i32, i32* %9, align 4
  %62 = sext i32 %61 to i64
  %63 = getelementptr inbounds [101 x i8], [101 x i8]* %60, i64 0, i64 %62
  store i8 0, i8* %63, align 1
  store i32 0, i32* %8, align 4
  br label %64

64:                                               ; preds = %78, %57
  %65 = load i32, i32* %8, align 4
  %66 = load i32, i32* %10, align 4
  %67 = icmp slt i32 %65, %66
  br i1 %67, label %68, label %81

68:                                               ; preds = %64
  %69 = load i32, i32* %8, align 4
  %70 = sext i32 %69 to i64
  %71 = getelementptr inbounds [50 x [101 x i8]], [50 x [101 x i8]]* %5, i64 0, i64 %70
  %72 = getelementptr inbounds [101 x i8], [101 x i8]* %71, i64 0, i64 0
  %73 = call i64 @strlen(i8* %72) #4
  %74 = trunc i64 %73 to i32
  %75 = load i32, i32* %8, align 4
  %76 = sext i32 %75 to i64
  %77 = getelementptr inbounds [50 x i32], [50 x i32]* %6, i64 0, i64 %76
  store i32 %74, i32* %77, align 4
  br label %78

78:                                               ; preds = %68
  %79 = load i32, i32* %8, align 4
  %80 = add nsw i32 %79, 1
  store i32 %80, i32* %8, align 4
  br label %64

81:                                               ; preds = %64
  store i32 0, i32* %8, align 4
  br label %82

82:                                               ; preds = %102, %81
  %83 = load i32, i32* %8, align 4
  %84 = load i32, i32* %10, align 4
  %85 = icmp sle i32 %83, %84
  br i1 %85, label %86, label %105

86:                                               ; preds = %82
  %87 = load i32, i32* %8, align 4
  %88 = sext i32 %87 to i64
  %89 = getelementptr inbounds [50 x [101 x i8]], [50 x [101 x i8]]* %5, i64 0, i64 %88
  %90 = getelementptr inbounds [101 x i8], [101 x i8]* %89, i64 0, i64 0
  %91 = getelementptr inbounds [101 x i8], [101 x i8]* %3, i64 0, i64 0
  %92 = call i32 @strcmp(i8* %90, i8* %91) #4
  %93 = icmp eq i32 %92, 0
  br i1 %93, label %94, label %101

94:                                               ; preds = %86
  %95 = load i32, i32* %8, align 4
  %96 = sext i32 %95 to i64
  %97 = getelementptr inbounds [50 x [101 x i8]], [50 x [101 x i8]]* %5, i64 0, i64 %96
  %98 = getelementptr inbounds [101 x i8], [101 x i8]* %97, i64 0, i64 0
  %99 = getelementptr inbounds [101 x i8], [101 x i8]* %4, i64 0, i64 0
  %100 = call i8* @strcpy(i8* %98, i8* %99) #5
  br label %101

101:                                              ; preds = %94, %86
  br label %102

102:                                              ; preds = %101
  %103 = load i32, i32* %8, align 4
  %104 = add nsw i32 %103, 1
  store i32 %104, i32* %8, align 4
  br label %82

105:                                              ; preds = %82
  store i32 0, i32* %8, align 4
  br label %106

106:                                              ; preds = %116, %105
  %107 = load i32, i32* %8, align 4
  %108 = load i32, i32* %10, align 4
  %109 = icmp slt i32 %107, %108
  br i1 %109, label %110, label %119

110:                                              ; preds = %106
  %111 = load i32, i32* %8, align 4
  %112 = sext i32 %111 to i64
  %113 = getelementptr inbounds [50 x [101 x i8]], [50 x [101 x i8]]* %5, i64 0, i64 %112
  %114 = getelementptr inbounds [101 x i8], [101 x i8]* %113, i64 0, i64 0
  %115 = call i32 (i8*, ...) @printf(i8* getelementptr inbounds ([4 x i8], [4 x i8]* @.str, i64 0, i64 0), i8* %114)
  br label %116

116:                                              ; preds = %110
  %117 = load i32, i32* %8, align 4
  %118 = add nsw i32 %117, 1
  store i32 %118, i32* %8, align 4
  br label %106

119:                                              ; preds = %106
  %120 = load i32, i32* %10, align 4
  %121 = sext i32 %120 to i64
  %122 = getelementptr inbounds [50 x [101 x i8]], [50 x [101 x i8]]* %5, i64 0, i64 %121
  %123 = getelementptr inbounds [101 x i8], [101 x i8]* %122, i64 0, i64 0
  %124 = call i32 (i8*, ...) @printf(i8* getelementptr inbounds ([4 x i8], [4 x i8]* @.str.1, i64 0, i64 0), i8* %123)
  ret i32 0
}

declare dso_local i32 @gets(...) #1

; Function Attrs: nounwind readonly
declare dso_local i64 @strlen(i8*) #2

; Function Attrs: nounwind readonly
declare dso_local i32 @strcmp(i8*, i8*) #2

; Function Attrs: nounwind
declare dso_local i8* @strcpy(i8*, i8*) #3

declare dso_local i32 @printf(i8*, ...) #1


!llvm.module.flags = !{!0}
!llvm.ident = !{!1}

!0 = !{i32 1, !"wchar_size", i32 4}
!1 = !{!"clang version 10.0.0-4ubuntu1 "}
